target datalayout = "e-m:e-p270:32:32-p271:32:32-p272:64:64-i64:64-i128:128-f80:128-n8:16:32:64-S128"
target triple = "x86_64-pc-linux-gnu"

%class.anon.618 = type { ptr, ptr }
%"class.llvm::ArrayRef.668" = type { ptr, i64 }
%"class.std::initializer_list" = type { ptr, i64 }

; Function Attrs: mustprogress nounwind uwtable
define linkonce_odr hidden noundef i64 @_ZNKSt16initializer_listIPKN4llvm5ValueEE4sizeEv(ptr noundef nonnull align 8 dereferenceable(16) %0) #1 comdat align 2 {
  %2 = alloca ptr, align 8
  store ptr %0, ptr %2, align 8
  %3 = load ptr, ptr %2, align 8
  %4 = getelementptr inbounds nuw %"class.std::initializer_list", ptr %3, i32 0, i32 1
  %5 = load i64, ptr %4, align 8
  ret i64 %5
}

; Function Attrs: mustprogress nounwind uwtable
define linkonce_odr hidden noundef ptr @_ZNKSt16initializer_listIPKN4llvm5ValueEE3endEv(ptr noundef nonnull align 8 dereferenceable(16) %0) #1 comdat align 2 {
  %2 = alloca ptr, align 8
  store ptr %0, ptr %2, align 8
  %3 = load ptr, ptr %2, align 8
  %4 = call noundef ptr @_ZNKSt16initializer_listIPKN4llvm5ValueEE5beginEv(ptr noundef nonnull align 8 dereferenceable(16) %3) #2
  %5 = call noundef i64 @_ZNKSt16initializer_listIPKN4llvm5ValueEE4sizeEv(ptr noundef nonnull align 8 dereferenceable(16) %3) #2
  %6 = getelementptr inbounds ptr, ptr %4, i64 %5
  ret ptr %6
}

; Function Attrs: mustprogress nounwind uwtable
define linkonce_odr hidden noundef ptr @_ZNKSt16initializer_listIPKN4llvm5ValueEE5beginEv(ptr noundef nonnull align 8 dereferenceable(16) %0) #1 comdat align 2 {
  %2 = alloca ptr, align 8
  store ptr %0, ptr %2, align 8
  %3 = load ptr, ptr %2, align 8
  %4 = getelementptr inbounds nuw %"class.std::initializer_list", ptr %3, i32 0, i32 0
  %5 = load ptr, ptr %4, align 8
  ret ptr %5
}

; Function Attrs: mustprogress nounwind uwtable
define linkonce_odr hidden void @_ZN4llvm8ArrayRefIPKNS_5ValueEEC2ERKSt16initializer_listIS3_E(ptr noundef nonnull align 8 dereferenceable(16) %0, ptr noundef nonnull align 8 dereferenceable(16) %1) unnamed_addr #1 comdat align 2 {
  %3 = alloca ptr, align 8
  %4 = alloca ptr, align 8
  store ptr %0, ptr %3, align 8
  store ptr %1, ptr %4, align 8
  %5 = load ptr, ptr %3, align 8
  %6 = getelementptr inbounds nuw %"class.llvm::ArrayRef.668", ptr %5, i32 0, i32 0
  %7 = load ptr, ptr %4, align 8
  %8 = call noundef ptr @_ZNKSt16initializer_listIPKN4llvm5ValueEE5beginEv(ptr noundef nonnull align 8 dereferenceable(16) %7) #2
  %9 = load ptr, ptr %4, align 8
  %10 = call noundef ptr @_ZNKSt16initializer_listIPKN4llvm5ValueEE3endEv(ptr noundef nonnull align 8 dereferenceable(16) %9) #2
  %11 = icmp eq ptr %8, %10
  br i1 %11, label %12, label %13

12:                                               ; preds = %2
  br label %16

13:                                               ; preds = %2
  %14 = load ptr, ptr %4, align 8
  %15 = call noundef ptr @_ZNKSt16initializer_listIPKN4llvm5ValueEE5beginEv(ptr noundef nonnull align 8 dereferenceable(16) %14) #2
  br label %16

16:                                               ; preds = %13, %12
  %17 = phi ptr [ null, %12 ], [ %15, %13 ]
  store ptr %17, ptr %6, align 8
  %18 = getelementptr inbounds nuw %"class.llvm::ArrayRef.668", ptr %5, i32 0, i32 1
  %19 = load ptr, ptr %4, align 8
  %20 = call noundef i64 @_ZNKSt16initializer_listIPKN4llvm5ValueEE4sizeEv(ptr noundef nonnull align 8 dereferenceable(16) %19) #2
  store i64 %20, ptr %18, align 8
  ret void
}

; Function Attrs: mustprogress nounwind uwtable
define internal noundef zeroext i1 @"_ZZN12_GLOBAL__N_125AAExecutionDomainFunction10updateImplERN4llvm10AttributorEENK3$_0clEPKNS1_11InstructionEPKNS1_5ValueENS1_16AAMemoryLocation10AccessKindEj"(ptr noundef nonnull align 8 dereferenceable(16) %0, ptr noundef %1, ptr noundef %2, i32 noundef %3, i32 noundef %4) #1 align 2 {
  %6 = alloca ptr, align 8
  %7 = alloca ptr, align 8
  %8 = alloca ptr, align 8
  %9 = alloca i32, align 4
  %10 = alloca i32, align 4
  %11 = alloca %"class.llvm::ArrayRef.668", align 8
  %12 = alloca %"class.std::initializer_list", align 8
  %13 = alloca [1 x ptr], align 8
  store ptr %0, ptr %6, align 8
  store ptr %1, ptr %7, align 8
  store ptr %2, ptr %8, align 8
  store i32 %3, ptr %9, align 4
  store i32 %4, ptr %10, align 4
  %14 = load ptr, ptr %6, align 8
  %15 = getelementptr inbounds nuw %class.anon.618, ptr %14, i32 0, i32 1
  %16 = load ptr, ptr %15, align 8
  %17 = getelementptr inbounds nuw %class.anon.618, ptr %14, i32 0, i32 0
  %18 = load ptr, ptr %17, align 8
  %19 = load ptr, ptr %8, align 8
  store ptr %19, ptr %13, align 8
  %20 = getelementptr inbounds nuw %"class.std::initializer_list", ptr %12, i32 0, i32 0
  store ptr %13, ptr %20, align 8
  %21 = getelementptr inbounds nuw %"class.std::initializer_list", ptr %12, i32 0, i32 1
  store i64 1, ptr %21, align 8
  call void @_ZN4llvm8ArrayRefIPKNS_5ValueEEC2ERKSt16initializer_listIS3_E(ptr noundef nonnull align 8 dereferenceable(16) %11, ptr noundef nonnull align 8 dereferenceable(16) %12)
  %22 = load ptr, ptr %7, align 8
  %23 = getelementptr inbounds nuw { ptr, i64 }, ptr %11, i32 0, i32 0
  %24 = load ptr, ptr %23, align 8
  %25 = getelementptr inbounds nuw { ptr, i64 }, ptr %11, i32 0, i32 1
  %26 = load i64, ptr %25, align 8
  %27 = call noundef zeroext i1 @_ZN4llvm2AA30isPotentiallyAffectedByBarrierERNS_10AttributorENS_8ArrayRefIPKNS_5ValueEEERKNS_17AbstractAttributeEPKNS_11InstructionE(ptr noundef nonnull align 8 dereferenceable(4296) %18, ptr %24, i64 %26, ptr noundef nonnull align 8 dereferenceable(80) %16, ptr noundef %22)
  %28 = xor i1 %27, true
  ret i1 %28
}

; Function Attrs: mustprogress nounwind uwtable
define internal noundef zeroext i1 @"_ZN4llvm12function_refIFbPKNS_11InstructionEPKNS_5ValueENS_16AAMemoryLocation10AccessKindEjEE11callback_fnIZN12_GLOBAL__N_125AAExecutionDomainFunction10updateImplERNS_10AttributorEE3$_0EEblS3_S6_S8_j"(i64 noundef %0, ptr noundef %1, ptr noundef %2, i32 noundef %3, i32 noundef %4) #1 align 2 {
  %6 = alloca i64, align 8
  %7 = alloca ptr, align 8
  %8 = alloca ptr, align 8
  %9 = alloca i32, align 4
  %10 = alloca i32, align 4
  store i64 %0, ptr %6, align 8
  store ptr %1, ptr %7, align 8
  store ptr %2, ptr %8, align 8
  store i32 %3, ptr %9, align 4
  store i32 %4, ptr %10, align 4
  %11 = load i64, ptr %6, align 8
  %12 = inttoptr i64 %11 to ptr
  %13 = load ptr, ptr %7, align 8
  %14 = load ptr, ptr %8, align 8
  %15 = load i32, ptr %9, align 4
  %16 = load i32, ptr %10, align 4
  %17 = call noundef zeroext i1 @"_ZZN12_GLOBAL__N_125AAExecutionDomainFunction10updateImplERN4llvm10AttributorEENK3$_0clEPKNS1_11InstructionEPKNS1_5ValueENS1_16AAMemoryLocation10AccessKindEj"(ptr noundef nonnull align 8 dereferenceable(16) %12, ptr noundef %13, ptr noundef %14, i32 noundef %15, i32 noundef %16)
  ret i1 %17
}