; Function Attrs: mustprogress nounwind uwtable
define internal noundef zeroext i1 @"_ZN4llvm12function_refIFbPKNS_11InstructionEPKNS_5ValueENS_16AAMemoryLocation10AccessKindEjEE11callback_fnIZN12_GLOBAL__N_125AAExecutionDomainFunction10updateImplERNS_10AttributorEE3$_0EEblS3_S6_S8_j"(i64 noundef %0, ptr noundef %1, ptr noundef %2, i32 %3, i32 %4) #0 align 2 {
  %6 = alloca [1 x ptr], align 8
  %7 = inttoptr i64 %0 to ptr
  %.val = load ptr, ptr %7, align 8
  %8 = getelementptr i8, ptr %7, i64 8
  %.val4 = load ptr, ptr %8, align 8
  call void @llvm.lifetime.start.p0(i64 8, ptr nonnull %6)
  store ptr %2, ptr %6, align 8
  %9 = call noundef zeroext i1 @_ZN4llvm2AA30isPotentiallyAffectedByBarrierERNS_10AttributorENS_8ArrayRefIPKNS_5ValueEEERKNS_17AbstractAttributeEPKNS_11InstructionE(ptr noundef nonnull align 8 dereferenceable(4296) %.val, ptr nonnull %6, i64 1, ptr noundef nonnull align 8 dereferenceable(80) %.val4, ptr noundef %1) #26
  %10 = xor i1 %9, true
  call void @llvm.lifetime.end.p0(i64 8, ptr nonnull %6)
  ret i1 %10
}